target datalayout = "e-m:e-p270:32:32-p271:32:32-p272:64:64-i64:64-i128:128-f80:128-n8:16:32:64-S128"
target triple = "x86_64-pc-linux-gnu"

%struct.BEValue = type { i8, i32, ptr, ptr, ptr }
%union.SourceSpan = type { i64 }
%struct.Decl_ = type { ptr, ptr, %union.SourceSpan, i64, %union.anon, i32, %union.anon.0, i64, ptr, ptr, ptr, %union.anon.1 }
%union.anon = type { ptr }
%union.anon.0 = type { i16 }
%union.anon.1 = type { %struct.FuncDecl }
%struct.FuncDecl = type { i32, [4 x i8], %struct.Signature_, i32, i32, %union.anon.8 }
%struct.Signature_ = type <{ %struct.CalleeAttributes, i16, i8, i32, i32, [4 x i8], ptr }>
%struct.CalleeAttributes = type { i8 }
%union.anon.8 = type { %struct.anon.9 }
%struct.anon.9 = type { i16, %union.anon.10 }
%union.anon.10 = type { ptr }

; Function Attrs: nounwind uwtable
define dso_local void @llvm_value_set_address(ptr noundef %0, ptr noundef %1, ptr noundef %2, i32 noundef %3) #0 {
  %5 = alloca ptr, align 8
  %6 = alloca ptr, align 8
  %7 = alloca ptr, align 8
  %8 = alloca i32, align 4
  store ptr %0, ptr %5, align 8
  store ptr %1, ptr %6, align 8
  store ptr %2, ptr %7, align 8
  store i32 %3, ptr %8, align 4
  %9 = load ptr, ptr %6, align 8
  %10 = load ptr, ptr %5, align 8
  %11 = getelementptr inbounds %struct.BEValue, ptr %10, i32 0, i32 3
  store ptr %9, ptr %11, align 8
  %12 = load i32, ptr %8, align 4
  %13 = load ptr, ptr %5, align 8
  %14 = getelementptr inbounds %struct.BEValue, ptr %13, i32 0, i32 1
  store i32 %12, ptr %14, align 4
  %15 = load ptr, ptr %5, align 8
  %16 = load i8, ptr %15, align 8
  %17 = and i8 %16, -32
  %18 = or i8 %17, 1
  store i8 %18, ptr %15, align 8
  %19 = load ptr, ptr %7, align 8
  %20 = call ptr @type_lowering(ptr noundef %19)
  %21 = load ptr, ptr %5, align 8
  %22 = getelementptr inbounds %struct.BEValue, ptr %21, i32 0, i32 2
  store ptr %20, ptr %22, align 8
  ret void
}

; Function Attrs: nounwind uwtable
define dso_local void @llvm_value_set_decl_address(ptr noundef %0, ptr noundef %1, ptr noundef %2) #0 {
  %4 = alloca ptr, align 8
  %5 = alloca ptr, align 8
  %6 = alloca ptr, align 8
  %7 = alloca ptr, align 8
  store ptr %0, ptr %4, align 8
  store ptr %1, ptr %5, align 8
  store ptr %2, ptr %6, align 8
  %8 = load ptr, ptr %4, align 8
  %9 = load ptr, ptr %6, align 8
  %10 = call ptr @llvm_get_ref(ptr noundef %8, ptr noundef %9)
  store ptr %10, ptr %7, align 8
  %11 = load ptr, ptr %5, align 8
  %12 = load ptr, ptr %7, align 8
  %13 = load ptr, ptr %6, align 8
  %14 = getelementptr inbounds %struct.Decl_, ptr %13, i32 0, i32 10
  %15 = load ptr, ptr %14, align 8
  %16 = load ptr, ptr %6, align 8
  %17 = getelementptr inbounds %struct.Decl_, ptr %16, i32 0, i32 5
  %18 = load i32, ptr %17, align 8
  call void @llvm_value_set_address(ptr noundef %11, ptr noundef %12, ptr noundef %15, i32 noundef %18)
  %19 = load ptr, ptr %4, align 8
  %20 = load ptr, ptr %6, align 8
  %21 = call ptr @llvm_get_opt_ref(ptr noundef %19, ptr noundef %20)
  %22 = load ptr, ptr %5, align 8
  %23 = getelementptr inbounds %struct.BEValue, ptr %22, i32 0, i32 4
  store ptr %21, ptr %23, align 8
  %24 = icmp ne ptr %21, null
  br i1 %24, label %25, label %30

25:                                               ; preds = %3
  %26 = load ptr, ptr %5, align 8
  %27 = load i8, ptr %26, align 8
  %28 = and i8 %27, -32
  %29 = or i8 %28, 2
  store i8 %29, ptr %26, align 8
  br label %30

30:                                               ; preds = %25, %3
  ret void
}