; Function Attrs: nounwind uwtable
define dso_local void @llvm_value_set_decl_address(ptr noundef %0, ptr noundef captures(none) initializes((4, 32)) %1, ptr noundef %2) local_unnamed_addr #0 {
  %4 = tail call ptr @llvm_get_ref(ptr noundef %0, ptr noundef %2) #3
  %5 = getelementptr inbounds nuw i8, ptr %2, i64 72
  %6 = load ptr, ptr %5, align 8
  %7 = getelementptr inbounds nuw i8, ptr %2, i64 40
  %8 = load i32, ptr %7, align 8
  %9 = getelementptr inbounds nuw i8, ptr %1, i64 16
  store ptr %4, ptr %9, align 8
  %10 = getelementptr inbounds nuw i8, ptr %1, i64 4
  store i32 %8, ptr %10, align 4
  %11 = load i8, ptr %1, align 8
  %12 = and i8 %11, -32
  %13 = or disjoint i8 %12, 1
  store i8 %13, ptr %1, align 8
  %14 = tail call fastcc ptr @type_lowering(ptr noundef readonly %6)
  %15 = getelementptr inbounds nuw i8, ptr %1, i64 8
  store ptr %14, ptr %15, align 8
  %16 = tail call ptr @llvm_get_opt_ref(ptr noundef %0, ptr noundef %2) #3
  %17 = getelementptr inbounds nuw i8, ptr %1, i64 24
  store ptr %16, ptr %17, align 8
  %.not = icmp eq ptr %16, null
  br i1 %.not, label %22, label %18

18:                                               ; preds = %3
  %19 = load i8, ptr %1, align 8
  %20 = and i8 %19, -32
  %21 = or disjoint i8 %20, 2
  store i8 %21, ptr %1, align 8
  br label %22

22:                                               ; preds = %18, %3
  ret void
}